target datalayout = "e-m:e-p270:32:32-p271:32:32-p272:64:64-i64:64-i128:128-f80:128-n8:16:32:64-S128"
target triple = "x86_64-unknown-linux-gnu"

%"class.v8::IndirectHandleBase" = type { ptr }
%"class.v8::Local.14" = type { %"class.v8::LocalBase.15" }
%"class.v8::LocalBase.15" = type { %"class.v8::IndirectHandleBase" }
%"class.v8::Local.294" = type { %"class.v8::LocalBase.295" }
%"class.v8::LocalBase.295" = type { %"class.v8::IndirectHandleBase" }
%"class.v8::LocalBase.394" = type { %"class.v8::IndirectHandleBase" }
%"class.v8::Local.393" = type { %"class.v8::LocalBase.394" }
%"class.v8::FunctionCallbackInfo" = type <{ ptr, ptr, i32, [4 x i8] }>

; Function Attrs: mustprogress nounwind uwtable
define linkonce_odr dso_local noundef ptr @_ZN4node10BaseObject12FromJSObjectEN2v85LocalINS1_5ValueEEE(ptr %value.coerce) #4 comdat align 2 {
entry:
  %this.addr.i42 = alloca ptr, align 8
  %other.addr.i = alloca ptr, align 8
  %this.addr.i.i39 = alloca ptr, align 8
  %other.addr.i.i = alloca ptr, align 8
  %retval.i40 = alloca %"class.v8::Local.294", align 8
  %that.i = alloca %"class.v8::Local.14", align 8
  %ref.tmp.i = alloca %"class.v8::LocalBase.295", align 8
  %heap_object_ptr.addr.i33 = alloca i64, align 8
  %offset.addr.i34 = alloca i32, align 4
  %addr.i35 = alloca i64, align 8
  %heap_object_ptr.addr.i27 = alloca i64, align 8
  %offset.addr.i28 = alloca i32, align 4
  %addr.i29 = alloca i64, align 8
  %heap_object_ptr.addr.i22 = alloca i64, align 8
  %offset.addr.i23 = alloca i32, align 4
  %addr.i = alloca i64, align 8
  %heap_object_ptr.addr.i19 = alloca i64, align 8
  %offset.addr.i20 = alloca i32, align 4
  %isolate.addr.i = alloca ptr, align 8
  %heap_object_ptr.addr.i = alloca i64, align 8
  %offset.addr.i = alloca i32, align 4
  %obj.addr.i17 = alloca i64, align 8
  %instance_type.addr.i = alloca i32, align 4
  %obj.addr.i = alloca i64, align 8
  %map.i = alloca i64, align 8
  %value.addr.i.i = alloca ptr, align 8
  %retval.i13 = alloca ptr, align 8
  %this.addr.i14 = alloca ptr, align 8
  %index.addr.i = alloca i32, align 4
  %obj.i = alloca i64, align 8
  %instance_type.i = alloca i32, align 4
  %offset.i = alloca i32, align 4
  %isolate.i = alloca ptr, align 8
  %value.i = alloca i64, align 8
  %slot.addr.i = alloca ptr, align 8
  %this.addr.i.i = alloca ptr, align 8
  %this.addr.i11 = alloca ptr, align 8
  %this.addr.i8 = alloca ptr, align 8
  %retval.i = alloca %"class.v8::Local.294", align 8
  %this.addr.i = alloca ptr, align 8
  %agg.tmp.i = alloca %"class.v8::Local.14", align 8
  %value = alloca %"class.v8::Local.14", align 8
  %obj = alloca %"class.v8::Local.294", align 8
  %coerce.dive = getelementptr inbounds %"class.v8::Local.14", ptr %value, i32 0, i32 0
  %coerce.dive1 = getelementptr inbounds %"class.v8::LocalBase.15", ptr %coerce.dive, i32 0, i32 0
  %coerce.dive2 = getelementptr inbounds %"class.v8::IndirectHandleBase", ptr %coerce.dive1, i32 0, i32 0
  store ptr %value.coerce, ptr %coerce.dive2, align 8
  store ptr %value, ptr %this.addr.i, align 8
  %this1.i = load ptr, ptr %this.addr.i, align 8
  call void @llvm.memcpy.p0.p0.i64(ptr align 8 %agg.tmp.i, ptr align 8 %this1.i, i64 8, i1 false)
  %0 = load ptr, ptr %agg.tmp.i, align 8
  store ptr %0, ptr %that.i, align 8
  store ptr %ref.tmp.i, ptr %this.addr.i42, align 8
  store ptr %that.i, ptr %other.addr.i, align 8
  %this1.i43 = load ptr, ptr %this.addr.i42, align 8
  %1 = load ptr, ptr %other.addr.i, align 8
  call void @llvm.memcpy.p0.p0.i64(ptr align 8 %this1.i43, ptr align 8 %1, i64 8, i1 false)
  store ptr %retval.i40, ptr %this.addr.i.i39, align 8
  store ptr %ref.tmp.i, ptr %other.addr.i.i, align 8
  %this1.i.i41 = load ptr, ptr %this.addr.i.i39, align 8
  %2 = load ptr, ptr %other.addr.i.i, align 8
  call void @llvm.memcpy.p0.p0.i64(ptr align 8 %this1.i.i41, ptr align 8 %2, i64 8, i1 false)
  %3 = load ptr, ptr %retval.i40, align 8
  store ptr %3, ptr %retval.i, align 8
  %4 = load ptr, ptr %retval.i, align 8
  %coerce.dive3 = getelementptr inbounds %"class.v8::Local.294", ptr %obj, i32 0, i32 0
  %coerce.dive4 = getelementptr inbounds %"class.v8::LocalBase.295", ptr %coerce.dive3, i32 0, i32 0
  %coerce.dive5 = getelementptr inbounds %"class.v8::IndirectHandleBase", ptr %coerce.dive4, i32 0, i32 0
  store ptr %4, ptr %coerce.dive5, align 8
  store ptr %obj, ptr %this.addr.i8, align 8
  %this1.i9 = load ptr, ptr %this.addr.i8, align 8
  store ptr %this1.i9, ptr %this.addr.i11, align 8
  %this1.i12 = load ptr, ptr %this.addr.i11, align 8
  store ptr %this1.i12, ptr %this.addr.i.i, align 8
  %this1.i.i = load ptr, ptr %this.addr.i.i, align 8
  %5 = load ptr, ptr %this1.i.i, align 8
  store ptr %5, ptr %slot.addr.i, align 8
  %6 = load ptr, ptr %slot.addr.i, align 8
  store ptr %6, ptr %this.addr.i14, align 8
  store i32 1, ptr %index.addr.i, align 4
  %this1.i15 = load ptr, ptr %this.addr.i14, align 8
  store ptr %this1.i15, ptr %value.addr.i.i, align 8
  %7 = load ptr, ptr %value.addr.i.i, align 8
  %8 = load i64, ptr %7, align 8
  store i64 %8, ptr %obj.i, align 8
  %9 = load i64, ptr %obj.i, align 8
  store i64 %9, ptr %obj.addr.i, align 8
  %10 = load i64, ptr %obj.addr.i, align 8
  store i64 %10, ptr %heap_object_ptr.addr.i19, align 8
  store i32 0, ptr %offset.addr.i20, align 4
  %11 = load i64, ptr %heap_object_ptr.addr.i19, align 8
  %12 = load i32, ptr %offset.addr.i20, align 4
  store i64 %11, ptr %heap_object_ptr.addr.i27, align 8
  store i32 %12, ptr %offset.addr.i28, align 4
  %13 = load i64, ptr %heap_object_ptr.addr.i27, align 8
  %14 = load i32, ptr %offset.addr.i28, align 4
  %conv.i30 = sext i32 %14 to i64
  %add.i31 = add i64 %13, %conv.i30
  %sub.i32 = sub i64 %add.i31, 1
  store i64 %sub.i32, ptr %addr.i29, align 8
  %15 = load i64, ptr %addr.i29, align 8
  %16 = inttoptr i64 %15 to ptr
  %17 = load i64, ptr %16, align 8
  store i64 %17, ptr %map.i, align 8
  %18 = load i64, ptr %map.i, align 8
  store i64 %18, ptr %heap_object_ptr.addr.i22, align 8
  store i32 12, ptr %offset.addr.i23, align 4
  %19 = load i64, ptr %heap_object_ptr.addr.i22, align 8
  %20 = load i32, ptr %offset.addr.i23, align 4
  %conv.i24 = sext i32 %20 to i64
  %add.i25 = add i64 %19, %conv.i24
  %sub.i26 = sub i64 %add.i25, 1
  store i64 %sub.i26, ptr %addr.i, align 8
  %21 = load i64, ptr %addr.i, align 8
  %22 = inttoptr i64 %21 to ptr
  %23 = load i16, ptr %22, align 2
  %conv.i = zext i16 %23 to i32
  store i32 %conv.i, ptr %instance_type.i, align 4
  %24 = load i32, ptr %instance_type.i, align 4
  store i32 %24, ptr %instance_type.addr.i, align 4
  %25 = load i32, ptr %instance_type.addr.i, align 4
  %cmp.i = icmp eq i32 %25, 1040
  br i1 %cmp.i, label %_ZN2v88internal9Internals20CanHaveInternalFieldEi.exit, label %lor.rhs.i

lor.rhs.i:                                        ; preds = %entry
  %26 = load i32, ptr %instance_type.addr.i, align 4
  %sub.i = sub i32 %26, 1057
  %cmp1.i = icmp ule i32 %sub.i, 1001
  br label %_ZN2v88internal9Internals20CanHaveInternalFieldEi.exit

_ZN2v88internal9Internals20CanHaveInternalFieldEi.exit: ; preds = %lor.rhs.i, %entry
  %27 = phi i1 [ true, %entry ], [ %cmp1.i, %lor.rhs.i ]
  br i1 %27, label %if.then.i, label %if.end.i

if.then.i:                                        ; preds = %_ZN2v88internal9Internals20CanHaveInternalFieldEi.exit
  %28 = load i32, ptr %index.addr.i, align 4
  %mul.i = mul nsw i32 8, %28
  %add.i = add nsw i32 24, %mul.i
  store i32 %add.i, ptr %offset.i, align 4
  %29 = load i64, ptr %obj.i, align 8
  store i64 %29, ptr %obj.addr.i17, align 8
  store ptr null, ptr %isolate.i, align 8
  %30 = load ptr, ptr %isolate.i, align 8
  %31 = load i64, ptr %obj.i, align 8
  %32 = load i32, ptr %offset.i, align 4
  store ptr %30, ptr %isolate.addr.i, align 8
  store i64 %31, ptr %heap_object_ptr.addr.i, align 8
  store i32 %32, ptr %offset.addr.i, align 4
  %33 = load i64, ptr %heap_object_ptr.addr.i, align 8
  %34 = load i32, ptr %offset.addr.i, align 4
  store i64 %33, ptr %heap_object_ptr.addr.i33, align 8
  store i32 %34, ptr %offset.addr.i34, align 4
  %35 = load i64, ptr %heap_object_ptr.addr.i33, align 8
  %36 = load i32, ptr %offset.addr.i34, align 4
  %conv.i36 = sext i32 %36 to i64
  %add.i37 = add i64 %35, %conv.i36
  %sub.i38 = sub i64 %add.i37, 1
  store i64 %sub.i38, ptr %addr.i35, align 8
  %37 = load i64, ptr %addr.i35, align 8
  %38 = inttoptr i64 %37 to ptr
  %39 = load i64, ptr %38, align 8
  store i64 %39, ptr %value.i, align 8
  %40 = load i64, ptr %value.i, align 8
  %41 = inttoptr i64 %40 to ptr
  store ptr %41, ptr %retval.i13, align 8
  br label %_ZN2v86Object34GetAlignedPointerFromInternalFieldEi.exit

if.end.i:                                         ; preds = %_ZN2v88internal9Internals20CanHaveInternalFieldEi.exit
  %42 = load i32, ptr %index.addr.i, align 4
  %call7.i = call noundef ptr @_ZN2v86Object38SlowGetAlignedPointerFromInternalFieldEi(ptr noundef nonnull align 1 dereferenceable(1) %this1.i15, i32 noundef %42) #3
  store ptr %call7.i, ptr %retval.i13, align 8
  br label %_ZN2v86Object34GetAlignedPointerFromInternalFieldEi.exit

_ZN2v86Object34GetAlignedPointerFromInternalFieldEi.exit: ; preds = %if.end.i, %if.then.i
  %43 = load ptr, ptr %retval.i13, align 8
  ret ptr %43
}

; Function Attrs: mustprogress nounwind uwtable
define dso_local void @_ZN4node6worker11MessagePort5DrainERKN2v820FunctionCallbackInfoINS2_5ValueEEE(ptr noundef nonnull align 8 dereferenceable(20) %args) #4 align 2 {
entry:
  %this.addr.i59 = alloca ptr, align 8
  %other.addr.i60 = alloca ptr, align 8
  %this.addr.i56 = alloca ptr, align 8
  %other.addr.i57 = alloca ptr, align 8
  %this.addr.i.i50 = alloca ptr, align 8
  %other.addr.i.i51 = alloca ptr, align 8
  %retval.i52 = alloca %"class.v8::Local.294", align 8
  %that.i53 = alloca %"class.v8::Local.14", align 8
  %ref.tmp.i54 = alloca %"class.v8::LocalBase.295", align 8
  %this.addr.i47 = alloca ptr, align 8
  %other.addr.i48 = alloca ptr, align 8
  %this.addr.i.i41 = alloca ptr, align 8
  %location.addr.i.i42 = alloca ptr, align 8
  %this.addr.i43 = alloca ptr, align 8
  %location.addr.i44 = alloca ptr, align 8
  %retval.i39 = alloca %"class.v8::LocalBase.15", align 8
  %slot.addr.i40 = alloca ptr, align 8
  %this.addr.i.i33 = alloca ptr, align 8
  %other.addr.i.i = alloca ptr, align 8
  %retval.i34 = alloca %"class.v8::Local.14", align 8
  %slot.addr.i35 = alloca ptr, align 8
  %ref.tmp.i36 = alloca %"class.v8::LocalBase.15", align 8
  %this.addr.i.i30 = alloca ptr, align 8
  %location.addr.i.i = alloca ptr, align 8
  %this.addr.i31 = alloca ptr, align 8
  %location.addr.i = alloca ptr, align 8
  %this.addr.i28 = alloca ptr, align 8
  %other.addr.i = alloca ptr, align 8
  %retval.i26 = alloca %"class.v8::LocalBase.394", align 8
  %slot.addr.i27 = alloca ptr, align 8
  %retval.i24 = alloca %"class.v8::Local.393", align 8
  %slot.addr.i = alloca ptr, align 8
  %ref.tmp.i = alloca %"class.v8::LocalBase.394", align 8
  %isolate.addr.i23 = alloca ptr, align 8
  %index.addr.i = alloca i32, align 4
  %addr.i = alloca i64, align 8
  %isolate.addr.i = alloca ptr, align 8
  %this.addr.i21 = alloca ptr, align 8
  %that.i.i = alloca %"class.v8::Local.393", align 8
  %this.addr.i.i = alloca ptr, align 8
  %retval.i.i = alloca %"class.v8::Local.393", align 8
  %isolate.addr.i.i = alloca ptr, align 8
  %slot.i.i = alloca ptr, align 8
  %retval.i16 = alloca %"class.v8::Local.14", align 8
  %this.addr.i17 = alloca ptr, align 8
  %i.addr.i = alloca i32, align 4
  %agg.tmp.i18 = alloca %"class.v8::Local.393", align 8
  %retval.i = alloca %"class.v8::Local.294", align 8
  %this.addr.i15 = alloca ptr, align 8
  %agg.tmp.i = alloca %"class.v8::Local.14", align 8
  %that.i = alloca %"class.v8::Local.294", align 8
  %this.addr.i = alloca ptr, align 8
  %args.addr = alloca ptr, align 8
  %port = alloca ptr, align 8
  %agg.tmp = alloca %"class.v8::Local.14", align 8
  %agg.tmp1 = alloca %"class.v8::Local.294", align 8
  %ref.tmp = alloca %"class.v8::Local.14", align 8
  store ptr %args, ptr %args.addr, align 8
  br label %do.body

do.body:                                          ; preds = %entry
  %0 = load ptr, ptr %args.addr, align 8
  store ptr %0, ptr %this.addr.i17, align 8
  store i32 0, ptr %i.addr.i, align 4
  %this1.i19 = load ptr, ptr %this.addr.i17, align 8
  %1 = load i32, ptr %i.addr.i, align 4
  %cmp.i = icmp slt i32 %1, 0
  br i1 %cmp.i, label %if.then.i, label %lor.lhs.false.i

lor.lhs.false.i:                                  ; preds = %do.body
  %length_.i = getelementptr inbounds %"class.v8::FunctionCallbackInfo", ptr %this1.i19, i32 0, i32 2
  %2 = load i32, ptr %length_.i, align 8
  %3 = load i32, ptr %i.addr.i, align 4
  %cmp2.i = icmp sle i32 %2, %3
  br i1 %cmp2.i, label %if.then.i, label %if.end.i

if.then.i:                                        ; preds = %lor.lhs.false.i, %do.body
  store ptr %this1.i19, ptr %this.addr.i21, align 8
  %this1.i22 = load ptr, ptr %this.addr.i21, align 8
  %4 = load ptr, ptr %this1.i22, align 8
  %arrayidx.i = getelementptr inbounds i64, ptr %4, i64 1
  %5 = load ptr, ptr %arrayidx.i, align 8
  store ptr %5, ptr %isolate.addr.i.i, align 8
  %6 = load ptr, ptr %isolate.addr.i.i, align 8
  store ptr %6, ptr %isolate.addr.i, align 8
  %7 = load ptr, ptr %isolate.addr.i.i, align 8
  store ptr %7, ptr %isolate.addr.i23, align 8
  store i32 4, ptr %index.addr.i, align 4
  %8 = load ptr, ptr %isolate.addr.i23, align 8
  %9 = ptrtoint ptr %8 to i64
  %add.i = add i64 %9, 576
  %10 = load i32, ptr %index.addr.i, align 4
  %mul.i = mul nsw i32 %10, 8
  %conv.i = sext i32 %mul.i to i64
  %add1.i = add i64 %add.i, %conv.i
  store i64 %add1.i, ptr %addr.i, align 8
  %11 = load i64, ptr %addr.i, align 8
  %12 = inttoptr i64 %11 to ptr
  store ptr %12, ptr %slot.i.i, align 8
  %13 = load ptr, ptr %slot.i.i, align 8
  store ptr %13, ptr %slot.addr.i, align 8
  %14 = load ptr, ptr %slot.addr.i, align 8
  store ptr %14, ptr %slot.addr.i27, align 8
  %15 = load ptr, ptr %slot.addr.i27, align 8
  store ptr %retval.i26, ptr %this.addr.i31, align 8
  store ptr %15, ptr %location.addr.i, align 8
  %this1.i32 = load ptr, ptr %this.addr.i31, align 8
  %16 = load ptr, ptr %location.addr.i, align 8
  store ptr %this1.i32, ptr %this.addr.i.i30, align 8
  store ptr %16, ptr %location.addr.i.i, align 8
  %this1.i.i = load ptr, ptr %this.addr.i.i30, align 8
  %17 = load ptr, ptr %location.addr.i.i, align 8
  store ptr %17, ptr %this1.i.i, align 8
  %18 = load ptr, ptr %retval.i26, align 8
  store ptr %18, ptr %ref.tmp.i, align 8
  store ptr %retval.i24, ptr %this.addr.i28, align 8
  store ptr %ref.tmp.i, ptr %other.addr.i, align 8
  %this1.i29 = load ptr, ptr %this.addr.i28, align 8
  %19 = load ptr, ptr %other.addr.i, align 8
  call void @llvm.memcpy.p0.p0.i64(ptr align 8 %this1.i29, ptr align 8 %19, i64 8, i1 false)
  %20 = load ptr, ptr %retval.i24, align 8
  store ptr %20, ptr %retval.i.i, align 8
  %21 = load ptr, ptr %retval.i.i, align 8
  store ptr %21, ptr %agg.tmp.i18, align 8
  %22 = load ptr, ptr %agg.tmp.i18, align 8
  store ptr %22, ptr %that.i.i, align 8
  store ptr %retval.i16, ptr %this.addr.i.i, align 8
  %this3.i.i = load ptr, ptr %this.addr.i.i, align 8
  store ptr %this3.i.i, ptr %this.addr.i59, align 8
  store ptr %that.i.i, ptr %other.addr.i60, align 8
  %this1.i61 = load ptr, ptr %this.addr.i59, align 8
  %23 = load ptr, ptr %other.addr.i60, align 8
  call void @llvm.memcpy.p0.p0.i64(ptr align 8 %this1.i61, ptr align 8 %23, i64 8, i1 false)
  br label %_ZNK2v820FunctionCallbackInfoINS_5ValueEEixEi.exit

if.end.i:                                         ; preds = %lor.lhs.false.i
  %values_.i = getelementptr inbounds %"class.v8::FunctionCallbackInfo", ptr %this1.i19, i32 0, i32 1
  %24 = load ptr, ptr %values_.i, align 8
  %25 = load i32, ptr %i.addr.i, align 4
  %idx.ext.i = sext i32 %25 to i64
  %add.ptr.i = getelementptr inbounds i64, ptr %24, i64 %idx.ext.i
  store ptr %add.ptr.i, ptr %slot.addr.i35, align 8
  %26 = load ptr, ptr %slot.addr.i35, align 8
  store ptr %26, ptr %slot.addr.i40, align 8
  %27 = load ptr, ptr %slot.addr.i40, align 8
  store ptr %retval.i39, ptr %this.addr.i43, align 8
  store ptr %27, ptr %location.addr.i44, align 8
  %this1.i45 = load ptr, ptr %this.addr.i43, align 8
  %28 = load ptr, ptr %location.addr.i44, align 8
  store ptr %this1.i45, ptr %this.addr.i.i41, align 8
  store ptr %28, ptr %location.addr.i.i42, align 8
  %this1.i.i46 = load ptr, ptr %this.addr.i.i41, align 8
  %29 = load ptr, ptr %location.addr.i.i42, align 8
  store ptr %29, ptr %this1.i.i46, align 8
  %30 = load ptr, ptr %retval.i39, align 8
  store ptr %30, ptr %ref.tmp.i36, align 8
  store ptr %retval.i34, ptr %this.addr.i.i33, align 8
  store ptr %ref.tmp.i36, ptr %other.addr.i.i, align 8
  %this1.i.i38 = load ptr, ptr %this.addr.i.i33, align 8
  %31 = load ptr, ptr %other.addr.i.i, align 8
  call void @llvm.memcpy.p0.p0.i64(ptr align 8 %this1.i.i38, ptr align 8 %31, i64 8, i1 false)
  %32 = load ptr, ptr %retval.i34, align 8
  store ptr %32, ptr %retval.i16, align 8
  br label %_ZNK2v820FunctionCallbackInfoINS_5ValueEEixEi.exit

_ZNK2v820FunctionCallbackInfoINS_5ValueEEixEi.exit: ; preds = %if.end.i, %if.then.i
  %33 = load ptr, ptr %retval.i16, align 8
  %coerce.dive = getelementptr inbounds %"class.v8::Local.14", ptr %ref.tmp, i32 0, i32 0
  %coerce.dive2 = getelementptr inbounds %"class.v8::LocalBase.15", ptr %coerce.dive, i32 0, i32 0
  %coerce.dive3 = getelementptr inbounds %"class.v8::IndirectHandleBase", ptr %coerce.dive2, i32 0, i32 0
  store ptr %33, ptr %coerce.dive3, align 8
  store ptr %ref.tmp, ptr %this.addr.i15, align 8
  %this1.i = load ptr, ptr %this.addr.i15, align 8
  call void @llvm.memcpy.p0.p0.i64(ptr align 8 %agg.tmp.i, ptr align 8 %this1.i, i64 8, i1 false)
  %34 = load ptr, ptr %agg.tmp.i, align 8
  store ptr %34, ptr %that.i53, align 8
  store ptr %ref.tmp.i54, ptr %this.addr.i56, align 8
  store ptr %that.i53, ptr %other.addr.i57, align 8
  %this1.i58 = load ptr, ptr %this.addr.i56, align 8
  %35 = load ptr, ptr %other.addr.i57, align 8
  call void @llvm.memcpy.p0.p0.i64(ptr align 8 %this1.i58, ptr align 8 %35, i64 8, i1 false)
  store ptr %retval.i52, ptr %this.addr.i.i50, align 8
  store ptr %ref.tmp.i54, ptr %other.addr.i.i51, align 8
  %this1.i.i55 = load ptr, ptr %this.addr.i.i50, align 8
  %36 = load ptr, ptr %other.addr.i.i51, align 8
  call void @llvm.memcpy.p0.p0.i64(ptr align 8 %this1.i.i55, ptr align 8 %36, i64 8, i1 false)
  %37 = load ptr, ptr %retval.i52, align 8
  store ptr %37, ptr %retval.i, align 8
  %38 = load ptr, ptr %retval.i, align 8
  %coerce.dive5 = getelementptr inbounds %"class.v8::Local.294", ptr %agg.tmp1, i32 0, i32 0
  %coerce.dive6 = getelementptr inbounds %"class.v8::LocalBase.295", ptr %coerce.dive5, i32 0, i32 0
  %coerce.dive7 = getelementptr inbounds %"class.v8::IndirectHandleBase", ptr %coerce.dive6, i32 0, i32 0
  store ptr %38, ptr %coerce.dive7, align 8
  %coerce.dive8 = getelementptr inbounds %"class.v8::Local.294", ptr %agg.tmp1, i32 0, i32 0
  %coerce.dive9 = getelementptr inbounds %"class.v8::LocalBase.295", ptr %coerce.dive8, i32 0, i32 0
  %coerce.dive10 = getelementptr inbounds %"class.v8::IndirectHandleBase", ptr %coerce.dive9, i32 0, i32 0
  %39 = load ptr, ptr %coerce.dive10, align 8
  store ptr %39, ptr %that.i, align 8
  store ptr %agg.tmp, ptr %this.addr.i, align 8
  %this3.i = load ptr, ptr %this.addr.i, align 8
  store ptr %this3.i, ptr %this.addr.i47, align 8
  store ptr %that.i, ptr %other.addr.i48, align 8
  %this1.i49 = load ptr, ptr %this.addr.i47, align 8
  %40 = load ptr, ptr %other.addr.i48, align 8
  call void @llvm.memcpy.p0.p0.i64(ptr align 8 %this1.i49, ptr align 8 %40, i64 8, i1 false)
  %coerce.dive11 = getelementptr inbounds %"class.v8::Local.14", ptr %agg.tmp, i32 0, i32 0
  %coerce.dive12 = getelementptr inbounds %"class.v8::LocalBase.15", ptr %coerce.dive11, i32 0, i32 0
  %coerce.dive13 = getelementptr inbounds %"class.v8::IndirectHandleBase", ptr %coerce.dive12, i32 0, i32 0
  %41 = load ptr, ptr %coerce.dive13, align 8
  %call14 = call noundef ptr @_ZN4node10BaseObject12FromJSObjectEN2v85LocalINS1_5ValueEEE(ptr %41)
  store ptr %call14, ptr %port, align 8
  %42 = load ptr, ptr %port, align 8
  %cmp = icmp eq ptr %42, null
  br i1 %cmp, label %if.then, label %if.end

if.then:                                          ; preds = %_ZNK2v820FunctionCallbackInfoINS_5ValueEEixEi.exit
  br label %return

if.end:                                           ; preds = %_ZNK2v820FunctionCallbackInfoINS_5ValueEEixEi.exit
  br label %do.end

do.end:                                           ; preds = %if.end
  %43 = load ptr, ptr %port, align 8
  call void @_ZN4node6worker11MessagePort9OnMessageENS1_21MessageProcessingModeE(ptr noundef nonnull align 8 dereferenceable(240) %43, i32 noundef 1)
  br label %return

return:                                           ; preds = %do.end, %if.then
  ret void
}