; Function Attrs: mustprogress nounwind uwtable
define dso_local void @_ZN4node6worker11MessagePort5DrainERKN2v820FunctionCallbackInfoINS2_5ValueEEE(ptr nocapture noundef nonnull readonly align 8 dereferenceable(20) %args) #6 align 2 {
entry:
  %length_.i = getelementptr inbounds i8, ptr %args, i64 16
  %0 = load i32, ptr %length_.i, align 8
  %cmp2.i = icmp slt i32 %0, 1
  br i1 %cmp2.i, label %if.then.i, label %if.end.i

if.then.i:                                        ; preds = %entry
  %1 = load ptr, ptr %args, align 8
  %arrayidx.i = getelementptr inbounds i8, ptr %1, i64 8
  %2 = load ptr, ptr %arrayidx.i, align 8
  %3 = ptrtoint ptr %2 to i64
  %add1.i = add i64 %3, 608
  %4 = inttoptr i64 %add1.i to ptr
  br label %_ZNK2v820FunctionCallbackInfoINS_5ValueEEixEi.exit

if.end.i:                                         ; preds = %entry
  %values_.i = getelementptr inbounds i8, ptr %args, i64 8
  %5 = load ptr, ptr %values_.i, align 8
  br label %_ZNK2v820FunctionCallbackInfoINS_5ValueEEixEi.exit

_ZNK2v820FunctionCallbackInfoINS_5ValueEEixEi.exit: ; preds = %if.end.i, %if.then.i
  %retval.i16.sroa.0.0 = phi ptr [ %4, %if.then.i ], [ %5, %if.end.i ]
  %6 = load i64, ptr %retval.i16.sroa.0.0, align 8
  %sub.i32.i = add i64 %6, -1
  %7 = inttoptr i64 %sub.i32.i to ptr
  %8 = load i64, ptr %7, align 8
  %sub.i26.i = add i64 %8, 11
  %9 = inttoptr i64 %sub.i26.i to ptr
  %10 = load i16, ptr %9, align 2
  %conv.i.i = zext i16 %10 to i32
  %cmp.i.i = icmp eq i16 %10, 1040
  %sub.i.i = add nsw i32 %conv.i.i, -1057
  %cmp1.i.i = icmp ult i32 %sub.i.i, 1002
  %11 = select i1 %cmp.i.i, i1 true, i1 %cmp1.i.i
  br i1 %11, label %if.then.i.i, label %if.end.i.i

if.then.i.i:                                      ; preds = %_ZNK2v820FunctionCallbackInfoINS_5ValueEEixEi.exit
  %sub.i38.i = add i64 %6, 31
  %12 = inttoptr i64 %sub.i38.i to ptr
  %13 = load i64, ptr %12, align 8
  %14 = inttoptr i64 %13 to ptr
  br label %_ZN4node10BaseObject12FromJSObjectEN2v85LocalINS1_5ValueEEE.exit

if.end.i.i:                                       ; preds = %_ZNK2v820FunctionCallbackInfoINS_5ValueEEixEi.exit
  %call7.i.i = tail call noundef ptr @_ZN2v86Object38SlowGetAlignedPointerFromInternalFieldEi(ptr noundef nonnull align 1 dereferenceable(1) %retval.i16.sroa.0.0, i32 noundef 1) #26
  br label %_ZN4node10BaseObject12FromJSObjectEN2v85LocalINS1_5ValueEEE.exit

_ZN4node10BaseObject12FromJSObjectEN2v85LocalINS1_5ValueEEE.exit: ; preds = %if.then.i.i, %if.end.i.i
  %retval.i13.0.i = phi ptr [ %14, %if.then.i.i ], [ %call7.i.i, %if.end.i.i ]
  %cmp = icmp eq ptr %retval.i13.0.i, null
  br i1 %cmp, label %return, label %do.end

do.end:                                           ; preds = %_ZN4node10BaseObject12FromJSObjectEN2v85LocalINS1_5ValueEEE.exit
  tail call void @_ZN4node6worker11MessagePort9OnMessageENS1_21MessageProcessingModeE(ptr noundef nonnull align 8 dereferenceable(240) %retval.i13.0.i, i32 noundef 1)
  br label %return

return:                                           ; preds = %_ZN4node10BaseObject12FromJSObjectEN2v85LocalINS1_5ValueEEE.exit, %do.end
  ret void
}